-----BEGIN RSA PRIVATE KEY-----
MIIEowIBAAKCAQEA0s63E1lP3yzLa4PLu/yyxSMntmoO3Roi2mSRmkQ7epEGYy1j
dZNo3OhMp5Lrziv7WEVXMWi7oQBgZDp+xLJoaEz+nJ3KmhlPWJ2Vxzj2QEmA/NJD
s+KdOa/zI6XVJ4Oi1fbb+HZcC/JCQiKkRjv1EuOlu63oRqrmLDDyFxT0ClarfnCn
voc+qEF4Pdsd4qUMRzr4+g2jTTLwlrhy46HO/l8sh7mDFxsciKojwTNet5EMZRr4
DE/LPyiR9R6/5FL3nCG1c29wlmGj6awH/ytsqyPZ7hj2G/pAxgolXfGdDL0LgKPI
0OP2542bR03j5r8cphOYFjaf94oXxXSnJBiptwIDAQABAoIBAGPHjEgQQgn0feRJ
4aj9FvDQjv98e8STlmOgrnpCSZTeCBPxa94/A6dsHLxEgnB3yOQjDf5JAGZYc0d9
mHspptmXd/xRg5Ak4rWjAT3m7EfJgtAoBfujC6A+c+svlxC48d4sljmobDELXelH
1FGaF4n1ToDi88pfIctQ74WVWV16g+OXiMqLKoeYZ9Qi1D1K9WsNV0QpPVwOezxz
D764A7NLffWmmlvwRYPiU+jE+uvAaV57VHAGpYmFVzpw1T9Ct81wbfehub7FtvbK
Ql9QDfGh0Ct5Z66enH/Q5OgFXiqrjZiqnZS2nlwwG4e3jWIgPJ1v4K+jfNIeQCPO
eYM8tcECgYEA+y8TyJMn9vmLmE/i7UfUUxK0o84lgVPoMHBvXruwFW+9l1hemRr+
wO/CEcVi7GKB1Z4CX44L4bZ7fHDhlTCvo8ur8fEcnjWNPa73sBdETxfv9PxYJXsz
bbW2X2yP9VXrYeiuFhxryoSouSsfdRMD8SG0In0FmqJ6sQBVkEzM5JkCgYEA1tlz
z6uN2YCJclyZrSdy2dYfpkRdHGrRaHs0Je8q2MqNgHHVpg9u+OSrAG3kjYb6PiX2
vD/ZX3sNRZUS8sfGZIyvxNQ564++Ire9aWv1qbnC8u4szP8i1VJN/Yaa8bD+r+4M
88Zs/YVFaNy97CflTWfQeKwjaqEw7ASt0Va7os8CgYArrmstVVH85Da/fR0EkJo+
/CDH38Cr9fCKA/OKMO+VOsJowGhrDcPBv7ArMP1cCGF1ya21+ljcnsRoxqSkMjxJ
KtEzGPAWH0/5qyTNza4GZy5Gl1+o3Pz7lj8p5xI94vw1Iaasl7KzHFDPKs2kqXLl
CyxtVvqTgq/9egZnOsPi+QKBgHBOxz0dPk8d47tGMIbVAjJgvbaaMdny9HgbPw09
UjZ02zbzSm090BKG5eSZjUl170WhbrLE5YoFttBSts72IvzYleDb11MNlqRrS7XZ
21bXZdK7MewOylSca2xFeqUwklHArECZzstPaRMBoL3btP+bbtxFj1Xj4MDfSUUO
g5L9AoGBAM6rrbpCCiPx7hJJoraN/UEa3Vhq/y9gZ5ra0N8u3k3EVkzG36Arm3lB
zIs0TbtJavr7rg58rGSpxc8cmtJbyK+8WQaVUMTZbWzaV6wj2BshRSMN91HxYKpF
bh8+a2ZvSjwyHa6m47kol0l69c+P1g6pkSTKsRpjmi2brgVK5124
-----END RSA PRIVATE KEY-----

Certificate:
    Data:
        Version: 3 (0x2)
        Serial Number: 1 (0x1)
    Signature Algorithm: sha256WithRSAEncryption
        Issuer: CN=devcert
        Validity
            Not Before: Feb  4 21:08:01 2020 GMT
            Not After : Mar  5 21:08:01 2020 GMT
        Subject: CN=foo.com
        Subject Public Key Info:
            Public Key Algorithm: rsaEncryption
                Public-Key: (2048 bit)
                Modulus:
                    00:d2:ce:b7:13:59:4f:df:2c:cb:6b:83:cb:bb:fc:
                    b2:c5:23:27:b6:6a:0e:dd:1a:22:da:64:91:9a:44:
                    3b:7a:91:06:63:2d:63:75:93:68:dc:e8:4c:a7:92:
                    eb:ce:2b:fb:58:45:57:31:68:bb:a1:00:60:64:3a:
                    7e:c4:b2:68:68:4c:fe:9c:9d:ca:9a:19:4f:58:9d:
                    95:c7:38:f6:40:49:80:fc:d2:43:b3:e2:9d:39:af:
                    f3:23:a5:d5:27:83:a2:d5:f6:db:f8:76:5c:0b:f2:
                    42:42:22:a4:46:3b:f5:12:e3:a5:bb:ad:e8:46:aa:
                    e6:2c:30:f2:17:14:f4:0a:56:ab:7e:70:a7:be:87:
                    3e:a8:41:78:3d:db:1d:e2:a5:0c:47:3a:f8:fa:0d:
                    a3:4d:32:f0:96:b8:72:e3:a1:ce:fe:5f:2c:87:b9:
                    83:17:1b:1c:88:aa:23:c1:33:5e:b7:91:0c:65:1a:
                    f8:0c:4f:cb:3f:28:91:f5:1e:bf:e4:52:f7:9c:21:
                    b5:73:6f:70:96:61:a3:e9:ac:07:ff:2b:6c:ab:23:
                    d9:ee:18:f6:1b:fa:40:c6:0a:25:5d:f1:9d:0c:bd:
                    0b:80:a3:c8:d0:e3:f6:e7:8d:9b:47:4d:e3:e6:bf:
                    1c:a6:13:98:16:36:9f:f7:8a:17:c5:74:a7:24:18:
                    a9:b7
                Exponent: 65537 (0x10001)
        X509v3 extensions:
            X509v3 Basic Constraints: critical
                CA:FALSE
            X509v3 Subject Key Identifier: 
                9C:67:DA:E5:D1:BB:4C:D4:09:83:E8:7C:08:F4:13:53:FF:9A:2E:49
            X509v3 Authority Key Identifier: 
                keyid:3E:AC:94:50:C2:08:5C:94:BF:6F:05:24:28:E5:E3:FD:E4:6B:55:84
                DirName:/CN=devcert
                serial:C3:3C:82:E8:CC:E3:16:D5

            X509v3 Key Usage: critical
                Digital Signature, Key Encipherment
            X509v3 Extended Key Usage: 
                TLS Web Server Authentication
            X509v3 Subject Alternative Name: 
                DNS:foo.com, DNS:*.foo.com, DNS:bar.com, DNS:*.bar.com
    Signature Algorithm: sha256WithRSAEncryption
         0c:54:46:2e:5a:8c:5e:4d:93:6d:9b:5d:ff:f8:9f:2e:64:09:
         c0:5f:eb:a5:24:ed:92:ef:53:5f:bb:06:d7:e0:ad:02:d8:f7:
         94:42:89:86:6b:b3:fa:a4:7e:67:80:2e:f2:35:0f:e7:24:3d:
         2d:2b:e7:79:22:fa:9c:2c:2e:50:2e:cc:2e:ff:55:06:46:2e:
         0d:b0:b5:9c:b3:db:82:e5:7e:bb:4d:f6:8b:37:b2:73:e9:03:
         f8:fe:fd:0b:9b:ac:3c:f7:31:f0:1f:f1:4f:19:13:16:d7:a7:
         a4:30:1f:f2:f7:b9:44:ab:1c:29:2a:17:5a:a8:8e:fa:91:23:
         b0:c3:14:c7:11:bf:94:57:1b:57:51:7a:7c:44:a0:be:ee:40:
         be:67:a0:5e:2a:a6:eb:71:7c:dc:67:14:8b:ac:cc:2e:9f:07:
         01:3e:f8:64:d3:c0:05:b9:77:76:ae:fb:f8:7e:1c:06:b1:7a:
         e8:84:46:3e:cf:0a:fb:8d:4e:23:90:ec:cf:60:5c:43:79:9f:
         60:9e:23:d0:6a:8e:f4:69:c8:8a:01:30:a5:84:52:02:93:77:
         63:52:8f:ab:eb:89:ad:ee:18:26:f8:4a:ca:9a:e9:b9:5b:35:
         d5:e9:d2:85:40:c5:90:3b:d1:12:10:58:63:e4:82:c4:d6:f3:
         28:d3:5f:50
-----BEGIN CERTIFICATE-----
MIIDbDCCAlSgAwIBAgIBATANBgkqhkiG9w0BAQsFADASMRAwDgYDVQQDDAdkZXZj
ZXJ0MB4XDTIwMDIwNDIxMDgwMVoXDTIwMDMwNTIxMDgwMVowEjEQMA4GA1UEAwwH
Zm9vLmNvbTCCASIwDQYJKoZIhvcNAQEBBQADggEPADCCAQoCggEBANLOtxNZT98s
y2uDy7v8ssUjJ7ZqDt0aItpkkZpEO3qRBmMtY3WTaNzoTKeS684r+1hFVzFou6EA
YGQ6fsSyaGhM/pydypoZT1idlcc49kBJgPzSQ7PinTmv8yOl1SeDotX22/h2XAvy
QkIipEY79RLjpbut6Eaq5iww8hcU9ApWq35wp76HPqhBeD3bHeKlDEc6+PoNo00y
8Ja4cuOhzv5fLIe5gxcbHIiqI8EzXreRDGUa+AxPyz8okfUev+RS95whtXNvcJZh
o+msB/8rbKsj2e4Y9hv6QMYKJV3xnQy9C4CjyNDj9ueNm0dN4+a/HKYTmBY2n/eK
F8V0pyQYqbcCAwEAAaOBzDCByTAMBgNVHRMBAf8EAjAAMB0GA1UdDgQWBBScZ9rl
0btM1AmD6HwI9BNT/5ouSTBCBgNVHSMEOzA5gBQ+rJRQwghclL9vBSQo5eP95GtV
hKEWpBQwEjEQMA4GA1UEAwwHZGV2Y2VydIIJAMM8gujM4xbVMA4GA1UdDwEB/wQE
AwIFoDATBgNVHSUEDDAKBggrBgEFBQcDATAxBgNVHREEKjAoggdmb28uY29tggkq
LmZvby5jb22CB2Jhci5jb22CCSouYmFyLmNvbTANBgkqhkiG9w0BAQsFAAOCAQEA
DFRGLlqMXk2TbZtd//ifLmQJwF/rpSTtku9TX7sG1+CtAtj3lEKJhmuz+qR+Z4Au
8jUP5yQ9LSvneSL6nCwuUC7MLv9VBkYuDbC1nLPbguV+u032izeyc+kD+P79C5us
PPcx8B/xTxkTFtenpDAf8ve5RKscKSoXWqiO+pEjsMMUxxG/lFcbV1F6fESgvu5A
vmegXiqm63F83GcUi6zMLp8HAT74ZNPABbl3dq77+H4cBrF66IRGPs8K+41OI5Ds
z2BcQ3mfYJ4j0GqO9GnIigEwpYRSApN3Y1KPq+uJre4YJvhKyprpuVs11enShUDF
kDvREhBYY+SCxNbzKNNfUA==
-----END CERTIFICATE-----
